target datalayout = "e-m:e-p270:32:32-p271:32:32-p272:64:64-i64:64-i128:128-f80:128-n8:16:32:64-S128"
target triple = "x86_64-pc-linux-gnu"

; Function Attrs: nounwind uwtable
define hidden void @VP8LConvertBGRAToBGR_C(ptr noalias noundef %0, i32 noundef %1, ptr noalias noundef %2) #0 {
  %4 = alloca ptr, align 8
  %5 = alloca i32, align 4
  %6 = alloca ptr, align 8
  %7 = alloca ptr, align 8
  %8 = alloca i32, align 4
  store ptr %0, ptr %4, align 8, !tbaa !3
  store i32 %1, ptr %5, align 4, !tbaa !8
  store ptr %2, ptr %6, align 8, !tbaa !21
  call void @llvm.lifetime.start.p0(i64 8, ptr %7) #8
  %9 = load ptr, ptr %4, align 8, !tbaa !3
  %10 = load i32, ptr %5, align 4, !tbaa !8
  %11 = sext i32 %10 to i64
  %12 = getelementptr inbounds i32, ptr %9, i64 %11
  store ptr %12, ptr %7, align 8, !tbaa !3
  br label %13

13:                                               ; preds = %17, %3
  %14 = load ptr, ptr %4, align 8, !tbaa !3
  %15 = load ptr, ptr %7, align 8, !tbaa !3
  %16 = icmp ult ptr %14, %15
  br i1 %16, label %17, label %39

17:                                               ; preds = %13
  call void @llvm.lifetime.start.p0(i64 4, ptr %8) #8
  %18 = load ptr, ptr %4, align 8, !tbaa !3
  %19 = getelementptr inbounds nuw i32, ptr %18, i32 1
  store ptr %19, ptr %4, align 8, !tbaa !3
  %20 = load i32, ptr %18, align 4, !tbaa !8
  store i32 %20, ptr %8, align 4, !tbaa !8
  %21 = load i32, ptr %8, align 4, !tbaa !8
  %22 = lshr i32 %21, 0
  %23 = and i32 %22, 255
  %24 = trunc i32 %23 to i8
  %25 = load ptr, ptr %6, align 8, !tbaa !21
  %26 = getelementptr inbounds nuw i8, ptr %25, i32 1
  store ptr %26, ptr %6, align 8, !tbaa !21
  store i8 %24, ptr %25, align 1, !tbaa !13
  %27 = load i32, ptr %8, align 4, !tbaa !8
  %28 = lshr i32 %27, 8
  %29 = and i32 %28, 255
  %30 = trunc i32 %29 to i8
  %31 = load ptr, ptr %6, align 8, !tbaa !21
  %32 = getelementptr inbounds nuw i8, ptr %31, i32 1
  store ptr %32, ptr %6, align 8, !tbaa !21
  store i8 %30, ptr %31, align 1, !tbaa !13
  %33 = load i32, ptr %8, align 4, !tbaa !8
  %34 = lshr i32 %33, 16
  %35 = and i32 %34, 255
  %36 = trunc i32 %35 to i8
  %37 = load ptr, ptr %6, align 8, !tbaa !21
  %38 = getelementptr inbounds nuw i8, ptr %37, i32 1
  store ptr %38, ptr %6, align 8, !tbaa !21
  store i8 %36, ptr %37, align 1, !tbaa !13
  call void @llvm.lifetime.end.p0(i64 4, ptr %8) #8
  br label %13, !llvm.loop !41

39:                                               ; preds = %13
  call void @llvm.lifetime.end.p0(i64 8, ptr %7) #8
  ret void
}